target datalayout = "e-m:e-p270:32:32-p271:32:32-p272:64:64-i64:64-i128:128-f80:128-n8:16:32:64-S128"
target triple = "x86_64-pc-linux-gnu"

%"class.pxrInternal_v0_24__pxrReserved__::GfDualQuatf" = type { %"class.pxrInternal_v0_24__pxrReserved__::GfQuatf", %"class.pxrInternal_v0_24__pxrReserved__::GfQuatf" }
%"class.pxrInternal_v0_24__pxrReserved__::GfQuatf" = type { %"class.pxrInternal_v0_24__pxrReserved__::GfVec3f", float }
%"class.pxrInternal_v0_24__pxrReserved__::GfVec3f" = type { [3 x float] }

; Function Attrs: mustprogress nounwind uwtable
define linkonce_odr noundef nonnull align 4 dereferenceable(12) ptr @_ZN32pxrInternal_v0_24__pxrReserved__7GfVec3fmLEd(ptr noundef nonnull align 4 dereferenceable(12) %0, double noundef %1) #2 comdat align 2 {
  %3 = alloca ptr, align 8
  %4 = alloca double, align 8
  store ptr %0, ptr %3, align 8
  store double %1, ptr %4, align 8
  %5 = load ptr, ptr %3, align 8
  %6 = load double, ptr %4, align 8
  %7 = getelementptr inbounds nuw %"class.pxrInternal_v0_24__pxrReserved__::GfVec3f", ptr %5, i32 0, i32 0
  %8 = getelementptr inbounds [3 x float], ptr %7, i64 0, i64 0
  %9 = load float, ptr %8, align 4
  %10 = fpext float %9 to double
  %11 = fmul double %10, %6
  %12 = fptrunc double %11 to float
  store float %12, ptr %8, align 4
  %13 = load double, ptr %4, align 8
  %14 = getelementptr inbounds nuw %"class.pxrInternal_v0_24__pxrReserved__::GfVec3f", ptr %5, i32 0, i32 0
  %15 = getelementptr inbounds [3 x float], ptr %14, i64 0, i64 1
  %16 = load float, ptr %15, align 4
  %17 = fpext float %16 to double
  %18 = fmul double %17, %13
  %19 = fptrunc double %18 to float
  store float %19, ptr %15, align 4
  %20 = load double, ptr %4, align 8
  %21 = getelementptr inbounds nuw %"class.pxrInternal_v0_24__pxrReserved__::GfVec3f", ptr %5, i32 0, i32 0
  %22 = getelementptr inbounds [3 x float], ptr %21, i64 0, i64 2
  %23 = load float, ptr %22, align 4
  %24 = fpext float %23 to double
  %25 = fmul double %24, %20
  %26 = fptrunc double %25 to float
  store float %26, ptr %22, align 4
  ret ptr %5
}

; Function Attrs: mustprogress nounwind uwtable
define linkonce_odr { <2 x float>, float } @_ZNK32pxrInternal_v0_24__pxrReserved__7GfVec3fmlEd(ptr noundef nonnull align 4 dereferenceable(12) %0, double noundef %1) #2 comdat align 2 {
  %3 = alloca %"class.pxrInternal_v0_24__pxrReserved__::GfVec3f", align 4
  %4 = alloca ptr, align 8
  %5 = alloca double, align 8
  %6 = alloca %"class.pxrInternal_v0_24__pxrReserved__::GfVec3f", align 4
  %7 = alloca { <2 x float>, float }, align 8
  store ptr %0, ptr %4, align 8
  store double %1, ptr %5, align 8
  %8 = load ptr, ptr %4, align 8
  %9 = load double, ptr %5, align 8
  call void @llvm.memcpy.p0.p0.i64(ptr align 4 %6, ptr align 4 %8, i64 12, i1 false)
  %10 = call noundef nonnull align 4 dereferenceable(12) ptr @_ZN32pxrInternal_v0_24__pxrReserved__7GfVec3fmLEd(ptr noundef nonnull align 4 dereferenceable(12) %6, double noundef %9)
  call void @llvm.memcpy.p0.p0.i64(ptr align 4 %3, ptr align 4 %10, i64 12, i1 false)
  %11 = getelementptr inbounds nuw %"class.pxrInternal_v0_24__pxrReserved__::GfVec3f", ptr %3, i32 0, i32 0
  call void @llvm.memcpy.p0.p0.i64(ptr align 8 %7, ptr align 4 %11, i64 12, i1 false)
  %12 = load { <2 x float>, float }, ptr %7, align 8
  ret { <2 x float>, float } %12
}

; Function Attrs: mustprogress uwtable
define linkonce_odr { <2 x float>, <2 x float> } @_ZN32pxrInternal_v0_24__pxrReserved__mlERKNS_7GfQuatfES2_(ptr noundef nonnull align 4 dereferenceable(16) %0, ptr noundef nonnull align 4 dereferenceable(16) %1) #0 comdat {
  %3 = alloca %"class.pxrInternal_v0_24__pxrReserved__::GfQuatf", align 4
  %4 = alloca ptr, align 8
  %5 = alloca ptr, align 8
  %6 = alloca %"class.pxrInternal_v0_24__pxrReserved__::GfQuatf", align 4
  store ptr %0, ptr %4, align 8
  store ptr %1, ptr %5, align 8
  %7 = load ptr, ptr %5, align 8
  %8 = load ptr, ptr %4, align 8
  call void @llvm.memcpy.p0.p0.i64(ptr align 4 %6, ptr align 4 %8, i64 16, i1 false)
  %9 = call noundef nonnull align 4 dereferenceable(16) ptr @_ZN32pxrInternal_v0_24__pxrReserved__7GfQuatfmLERKS0_(ptr noundef nonnull align 4 dereferenceable(16) %6, ptr noundef nonnull align 4 dereferenceable(16) %7)
  call void @llvm.memcpy.p0.p0.i64(ptr align 4 %3, ptr align 4 %9, i64 16, i1 false)
  %10 = load { <2 x float>, <2 x float> }, ptr %3, align 4
  ret { <2 x float>, <2 x float> } %10
}

; Function Attrs: mustprogress nounwind uwtable
define linkonce_odr void @_ZN32pxrInternal_v0_24__pxrReserved__7GfQuatfC2EfRKNS_7GfVec3fE(ptr noundef nonnull align 4 dereferenceable(16) %0, float noundef %1, ptr noundef nonnull align 4 dereferenceable(12) %2) unnamed_addr #2 comdat align 2 {
  %4 = alloca ptr, align 8
  %5 = alloca float, align 4
  %6 = alloca ptr, align 8
  store ptr %0, ptr %4, align 8
  store float %1, ptr %5, align 4
  store ptr %2, ptr %6, align 8
  %7 = load ptr, ptr %4, align 8
  %8 = getelementptr inbounds nuw %"class.pxrInternal_v0_24__pxrReserved__::GfQuatf", ptr %7, i32 0, i32 0
  %9 = load ptr, ptr %6, align 8
  call void @llvm.memcpy.p0.p0.i64(ptr align 4 %8, ptr align 4 %9, i64 12, i1 false)
  %10 = getelementptr inbounds nuw %"class.pxrInternal_v0_24__pxrReserved__::GfQuatf", ptr %7, i32 0, i32 1
  %11 = load float, ptr %5, align 4
  store float %11, ptr %10, align 4
  ret void
}

; Function Attrs: mustprogress uwtable
define linkonce_odr { <2 x float>, float } @_ZN32pxrInternal_v0_24__pxrReserved__mlEdRKNS_7GfVec3fE(double noundef %0, ptr noundef nonnull align 4 dereferenceable(12) %1) #4 comdat {
  %3 = alloca %"class.pxrInternal_v0_24__pxrReserved__::GfVec3f", align 4
  %4 = alloca double, align 8
  %5 = alloca ptr, align 8
  %6 = alloca { <2 x float>, float }, align 8
  %7 = alloca { <2 x float>, float }, align 8
  store double %0, ptr %4, align 8
  store ptr %1, ptr %5, align 8
  %8 = load ptr, ptr %5, align 8
  %9 = load double, ptr %4, align 8
  %10 = call { <2 x float>, float } @_ZNK32pxrInternal_v0_24__pxrReserved__7GfVec3fmlEd(ptr noundef nonnull align 4 dereferenceable(12) %8, double noundef %9)
  %11 = getelementptr inbounds nuw %"class.pxrInternal_v0_24__pxrReserved__::GfVec3f", ptr %3, i32 0, i32 0
  store { <2 x float>, float } %10, ptr %6, align 8
  call void @llvm.memcpy.p0.p0.i64(ptr align 4 %11, ptr align 8 %6, i64 12, i1 false)
  %12 = getelementptr inbounds nuw %"class.pxrInternal_v0_24__pxrReserved__::GfVec3f", ptr %3, i32 0, i32 0
  call void @llvm.memcpy.p0.p0.i64(ptr align 8 %7, ptr align 4 %12, i64 12, i1 false)
  %13 = load { <2 x float>, float }, ptr %7, align 8
  ret { <2 x float>, float } %13
}

; Function Attrs: mustprogress uwtable
define void @_ZN32pxrInternal_v0_24__pxrReserved__11GfDualQuatf14SetTranslationERKNS_7GfVec3fE(ptr noundef nonnull align 4 dereferenceable(32) %0, ptr noundef nonnull align 4 dereferenceable(12) %1) #4 align 2 {
  %3 = alloca ptr, align 8
  %4 = alloca ptr, align 8
  %5 = alloca %"class.pxrInternal_v0_24__pxrReserved__::GfQuatf", align 4
  %6 = alloca %"class.pxrInternal_v0_24__pxrReserved__::GfQuatf", align 4
  %7 = alloca %"class.pxrInternal_v0_24__pxrReserved__::GfVec3f", align 4
  %8 = alloca { <2 x float>, float }, align 8
  store ptr %0, ptr %3, align 8
  store ptr %1, ptr %4, align 8
  %9 = load ptr, ptr %3, align 8
  %10 = load ptr, ptr %4, align 8
  %11 = call { <2 x float>, float } @_ZN32pxrInternal_v0_24__pxrReserved__mlEdRKNS_7GfVec3fE(double noundef 5.000000e-01, ptr noundef nonnull align 4 dereferenceable(12) %10)
  %12 = getelementptr inbounds nuw %"class.pxrInternal_v0_24__pxrReserved__::GfVec3f", ptr %7, i32 0, i32 0
  store { <2 x float>, float } %11, ptr %8, align 8
  call void @llvm.memcpy.p0.p0.i64(ptr align 4 %12, ptr align 8 %8, i64 12, i1 false)
  call void @_ZN32pxrInternal_v0_24__pxrReserved__7GfQuatfC2EfRKNS_7GfVec3fE(ptr noundef nonnull align 4 dereferenceable(16) %6, float noundef 0.000000e+00, ptr noundef nonnull align 4 dereferenceable(12) %7)
  %13 = getelementptr inbounds nuw %"class.pxrInternal_v0_24__pxrReserved__::GfDualQuatf", ptr %9, i32 0, i32 0
  %14 = call { <2 x float>, <2 x float> } @_ZN32pxrInternal_v0_24__pxrReserved__mlERKNS_7GfQuatfES2_(ptr noundef nonnull align 4 dereferenceable(16) %6, ptr noundef nonnull align 4 dereferenceable(16) %13)
  %15 = getelementptr inbounds nuw { <2 x float>, <2 x float> }, ptr %5, i32 0, i32 0
  %16 = extractvalue { <2 x float>, <2 x float> } %14, 0
  store <2 x float> %16, ptr %15, align 4
  %17 = getelementptr inbounds nuw { <2 x float>, <2 x float> }, ptr %5, i32 0, i32 1
  %18 = extractvalue { <2 x float>, <2 x float> } %14, 1
  store <2 x float> %18, ptr %17, align 4
  %19 = getelementptr inbounds nuw %"class.pxrInternal_v0_24__pxrReserved__::GfDualQuatf", ptr %9, i32 0, i32 1
  call void @llvm.memcpy.p0.p0.i64(ptr align 4 %19, ptr align 4 %5, i64 16, i1 false)
  ret void
}