; Function Attrs: mustprogress uwtable
define void @_ZN32pxrInternal_v0_24__pxrReserved__11GfDualQuatf14SetTranslationERKNS_7GfVec3fE(ptr noundef nonnull align 4 dereferenceable(32) %0, ptr noundef nonnull readonly align 4 captures(none) dereferenceable(12) %1) local_unnamed_addr #5 align 2 {
  %3 = alloca %"class.pxrInternal_v0_24__pxrReserved__::GfQuatf", align 8
  %.sroa.0.0.copyload.i.i = load <2 x float>, ptr %1, align 4
  %.sroa.6.0..sroa_idx.i.i = getelementptr inbounds nuw i8, ptr %1, i64 8
  %.sroa.6.0.copyload.i.i7 = load float, ptr %.sroa.6.0..sroa_idx.i.i, align 4
  %.sroa.0.0.vec.extract.i.i = extractelement <2 x float> %.sroa.0.0.copyload.i.i, i64 0
  %4 = fmul float %.sroa.0.0.vec.extract.i.i, 5.000000e-01
  %.sroa.0.0.vec.insert.i.i = insertelement <2 x float> poison, float %4, i64 0
  %.sroa.0.4.vec.extract.i.i = extractelement <2 x float> %.sroa.0.0.copyload.i.i, i64 1
  %5 = fmul float %.sroa.0.4.vec.extract.i.i, 5.000000e-01
  %.sroa.0.4.vec.insert.i.i = insertelement <2 x float> %.sroa.0.0.vec.insert.i.i, float %5, i64 1
  %6 = fmul float %.sroa.6.0.copyload.i.i7, 5.000000e-01
  call void @llvm.lifetime.start.p0(i64 16, ptr nonnull %3)
  store <2 x float> %.sroa.0.4.vec.insert.i.i, ptr %3, align 8
  %.sroa.26.0..sroa_idx = getelementptr inbounds nuw i8, ptr %3, i64 8
  store float %6, ptr %.sroa.26.0..sroa_idx, align 8
  %.sroa.3.0..sroa_idx = getelementptr inbounds nuw i8, ptr %3, i64 12
  store float 0.000000e+00, ptr %.sroa.3.0..sroa_idx, align 4
  %7 = call noundef nonnull align 4 dereferenceable(16) ptr @_ZN32pxrInternal_v0_24__pxrReserved__7GfQuatfmLERKS0_(ptr noundef nonnull align 4 dereferenceable(16) %3, ptr noundef nonnull align 4 dereferenceable(16) %0)
  %.sroa.0.0.copyload.i = load <2 x float>, ptr %7, align 4
  %.sroa.2.0..sroa_idx.i = getelementptr inbounds nuw i8, ptr %7, i64 8
  %.sroa.2.0.copyload.i = load <2 x float>, ptr %.sroa.2.0..sroa_idx.i, align 4
  call void @llvm.lifetime.end.p0(i64 16, ptr nonnull %3)
  %8 = getelementptr inbounds nuw i8, ptr %0, i64 16
  store <2 x float> %.sroa.0.0.copyload.i, ptr %8, align 4
  %.sroa.22.0..sroa_idx = getelementptr inbounds nuw i8, ptr %0, i64 24
  store <2 x float> %.sroa.2.0.copyload.i, ptr %.sroa.22.0..sroa_idx, align 4
  ret void
}